target datalayout = "e-m:e-p270:32:32-p271:32:32-p272:64:64-i64:64-i128:128-f80:128-n8:16:32:64-S128"
target triple = "x86_64-pc-linux-gnu"

@libctx = internal global ptr null, align 8
@.str.14 = private unnamed_addr constant [30 x i8] c"../openssl/test/quicapitest.c\00", align 1
@.str.15 = private unnamed_addr constant [7 x i8] c"libctx\00", align 1
@.str.16 = private unnamed_addr constant [5 x i8] c"null\00", align 1
@defctxnull = internal global ptr null, align 8
@.str.17 = private unnamed_addr constant [41 x i8] c"OSSL_PROVIDER_available(NULL, \22default\22)\00", align 1
@.str.18 = private unnamed_addr constant [8 x i8] c"default\00", align 1
@.str.19 = private unnamed_addr constant [38 x i8] c"OSSL_PROVIDER_available(NULL, \22fips\22)\00", align 1
@.str.20 = private unnamed_addr constant [5 x i8] c"fips\00", align 1
@.str.21 = private unnamed_addr constant [28 x i8] c"Error parsing test options\0A\00", align 1
@.str.22 = private unnamed_addr constant [34 x i8] c"modulename = test_get_argument(0)\00", align 1
@.str.23 = private unnamed_addr constant [34 x i8] c"configfile = test_get_argument(1)\00", align 1
@.str.24 = private unnamed_addr constant [32 x i8] c"certsdir = test_get_argument(2)\00", align 1
@certsdir = internal global ptr null, align 8
@.str.25 = private unnamed_addr constant [31 x i8] c"datadir = test_get_argument(3)\00", align 1
@datadir = internal global ptr null, align 8
@.str.26 = private unnamed_addr constant [45 x i8] c"OSSL_LIB_CTX_load_config(libctx, configfile)\00", align 1
@.str.27 = private unnamed_addr constant [44 x i8] c"OSSL_PROVIDER_available(libctx, modulename)\00", align 1
@.str.28 = private unnamed_addr constant [43 x i8] c"OSSL_PROVIDER_available(libctx, \22default\22)\00", align 1
@is_fips = internal global i32 0, align 4
@.str.29 = private unnamed_addr constant [15 x i8] c"servercert.pem\00", align 1
@cert = internal global ptr null, align 8
@.str.30 = private unnamed_addr constant [20 x i8] c"ee-client-chain.pem\00", align 1
@ccert = internal global ptr null, align 8
@.str.31 = private unnamed_addr constant [14 x i8] c"root-cert.pem\00", align 1
@cauthca = internal global ptr null, align 8
@.str.32 = private unnamed_addr constant [14 x i8] c"serverkey.pem\00", align 1
@privkey = internal global ptr null, align 8
@.str.33 = private unnamed_addr constant [11 x i8] c"ee-key.pem\00", align 1
@cprivkey = internal global ptr null, align 8
@.str.34 = private unnamed_addr constant [21 x i8] c"test_quic_write_read\00", align 1
@.str.35 = private unnamed_addr constant [23 x i8] c"test_fin_only_blocking\00", align 1
@.str.36 = private unnamed_addr constant [18 x i8] c"test_ciphersuites\00", align 1
@.str.37 = private unnamed_addr constant [17 x i8] c"test_cipher_find\00", align 1
@.str.38 = private unnamed_addr constant [13 x i8] c"test_version\00", align 1
@.str.39 = private unnamed_addr constant [15 x i8] c"test_ssl_trace\00", align 1
@.str.40 = private unnamed_addr constant [29 x i8] c"test_quic_forbidden_apis_ctx\00", align 1
@.str.41 = private unnamed_addr constant [25 x i8] c"test_quic_forbidden_apis\00", align 1
@.str.42 = private unnamed_addr constant [28 x i8] c"test_quic_forbidden_options\00", align 1
@.str.43 = private unnamed_addr constant [17 x i8] c"test_quic_set_fd\00", align 1
@.str.44 = private unnamed_addr constant [13 x i8] c"test_bio_ssl\00", align 1
@.str.45 = private unnamed_addr constant [19 x i8] c"test_back_pressure\00", align 1
@.str.46 = private unnamed_addr constant [21 x i8] c"test_multiple_dgrams\00", align 1
@.str.47 = private unnamed_addr constant [18 x i8] c"test_non_io_retry\00", align 1
@.str.48 = private unnamed_addr constant [14 x i8] c"test_quic_psk\00", align 1
@.str.49 = private unnamed_addr constant [17 x i8] c"test_client_auth\00", align 1
@.str.50 = private unnamed_addr constant [10 x i8] c"test_alpn\00", align 1
@.str.51 = private unnamed_addr constant [17 x i8] c"test_noisy_dgram\00", align 1
@.str.52 = private unnamed_addr constant [14 x i8] c"test_bw_limit\00", align 1
@.str.53 = private unnamed_addr constant [18 x i8] c"test_get_shutdown\00", align 1
@.str.54 = private unnamed_addr constant [12 x i8] c"test_tparam\00", align 1
@.str.55 = private unnamed_addr constant [16 x i8] c"test_session_cb\00", align 1
@.str.56 = private unnamed_addr constant [18 x i8] c"test_domain_flags\00", align 1
@.str.57 = private unnamed_addr constant [17 x i8] c"test_early_ticks\00", align 1
@.str.58 = private unnamed_addr constant [27 x i8] c"test_ssl_new_from_listener\00", align 1
@.str.59 = private unnamed_addr constant [15 x i8] c"test_new_token\00", align 1

; Function Attrs: nounwind uwtable
define dso_local void @cleanup_tests() #0 {
  call void @bio_f_noisy_dgram_filter_free()
  call void @bio_f_pkt_split_dgram_filter_free()
  %1 = load ptr, ptr @cert, align 8, !tbaa !11
  call void @CRYPTO_free(ptr noundef %1, ptr noundef @.str.14, i32 noundef 2754)
  %2 = load ptr, ptr @privkey, align 8, !tbaa !11
  call void @CRYPTO_free(ptr noundef %2, ptr noundef @.str.14, i32 noundef 2755)
  %3 = load ptr, ptr @ccert, align 8, !tbaa !11
  call void @CRYPTO_free(ptr noundef %3, ptr noundef @.str.14, i32 noundef 2756)
  %4 = load ptr, ptr @cauthca, align 8, !tbaa !11
  call void @CRYPTO_free(ptr noundef %4, ptr noundef @.str.14, i32 noundef 2757)
  %5 = load ptr, ptr @cprivkey, align 8, !tbaa !11
  call void @CRYPTO_free(ptr noundef %5, ptr noundef @.str.14, i32 noundef 2758)
  %6 = load ptr, ptr @defctxnull, align 8, !tbaa !9
  %7 = call i32 @OSSL_PROVIDER_unload(ptr noundef %6)
  %8 = load ptr, ptr @libctx, align 8, !tbaa !4
  call void @OSSL_LIB_CTX_free(ptr noundef %8)
  ret void
}

; Function Attrs: nounwind uwtable
define dso_local i32 @setup_tests() #0 {
  %1 = alloca i32, align 4
  %2 = alloca ptr, align 8
  %3 = alloca ptr, align 8
  %4 = alloca i32, align 4
  call void @llvm.lifetime.start.p0(i64 8, ptr %2) #8
  call void @llvm.lifetime.start.p0(i64 8, ptr %3) #8
  %5 = call ptr @OSSL_LIB_CTX_new()
  store ptr %5, ptr @libctx, align 8, !tbaa !4
  %6 = load ptr, ptr @libctx, align 8, !tbaa !4
  %7 = call i32 @test_ptr(ptr noundef @.str.14, i32 noundef 2657, ptr noundef @.str.15, ptr noundef %6)
  %8 = icmp ne i32 %7, 0
  br i1 %8, label %10, label %9

9:                                                ; preds = %0
  store i32 0, ptr %1, align 4
  store i32 1, ptr %4, align 4
  br label %112

10:                                               ; preds = %0
  %11 = call ptr @OSSL_PROVIDER_load(ptr noundef null, ptr noundef @.str.16)
  store ptr %11, ptr @defctxnull, align 8, !tbaa !9
  %12 = call i32 @OSSL_PROVIDER_available(ptr noundef null, ptr noundef @.str.18)
  %13 = icmp ne i32 %12, 0
  %14 = zext i1 %13 to i32
  %15 = call i32 @test_false(ptr noundef @.str.14, i32 noundef 2666, ptr noundef @.str.17, i32 noundef %14)
  %16 = icmp ne i32 %15, 0
  br i1 %16, label %17, label %23

17:                                               ; preds = %10
  %18 = call i32 @OSSL_PROVIDER_available(ptr noundef null, ptr noundef @.str.20)
  %19 = icmp ne i32 %18, 0
  %20 = zext i1 %19 to i32
  %21 = call i32 @test_false(ptr noundef @.str.14, i32 noundef 2667, ptr noundef @.str.19, i32 noundef %20)
  %22 = icmp ne i32 %21, 0
  br i1 %22, label %24, label %23

23:                                               ; preds = %17, %10
  br label %111

24:                                               ; preds = %17
  %25 = call i32 @test_skip_common_options()
  %26 = icmp ne i32 %25, 0
  br i1 %26, label %28, label %27

27:                                               ; preds = %24
  call void (ptr, i32, ptr, ...) @test_error(ptr noundef @.str.14, i32 noundef 2671, ptr noundef @.str.21)
  br label %111

28:                                               ; preds = %24
  %29 = call ptr @test_get_argument(i64 noundef 0)
  store ptr %29, ptr %2, align 8, !tbaa !11
  %30 = call i32 @test_ptr(ptr noundef @.str.14, i32 noundef 2675, ptr noundef @.str.22, ptr noundef %29)
  %31 = icmp ne i32 %30, 0
  br i1 %31, label %32, label %44

32:                                               ; preds = %28
  %33 = call ptr @test_get_argument(i64 noundef 1)
  store ptr %33, ptr %3, align 8, !tbaa !11
  %34 = call i32 @test_ptr(ptr noundef @.str.14, i32 noundef 2676, ptr noundef @.str.23, ptr noundef %33)
  %35 = icmp ne i32 %34, 0
  br i1 %35, label %36, label %44

36:                                               ; preds = %32
  %37 = call ptr @test_get_argument(i64 noundef 2)
  store ptr %37, ptr @certsdir, align 8, !tbaa !11
  %38 = call i32 @test_ptr(ptr noundef @.str.14, i32 noundef 2677, ptr noundef @.str.24, ptr noundef %37)
  %39 = icmp ne i32 %38, 0
  br i1 %39, label %40, label %44

40:                                               ; preds = %36
  %41 = call ptr @test_get_argument(i64 noundef 3)
  store ptr %41, ptr @datadir, align 8, !tbaa !11
  %42 = call i32 @test_ptr(ptr noundef @.str.14, i32 noundef 2678, ptr noundef @.str.25, ptr noundef %41)
  %43 = icmp ne i32 %42, 0
  br i1 %43, label %45, label %44

44:                                               ; preds = %40, %36, %32, %28
  br label %111

45:                                               ; preds = %40
  %46 = load ptr, ptr @libctx, align 8, !tbaa !4
  %47 = load ptr, ptr %3, align 8, !tbaa !11
  %48 = call i32 @OSSL_LIB_CTX_load_config(ptr noundef %46, ptr noundef %47)
  %49 = icmp ne i32 %48, 0
  %50 = zext i1 %49 to i32
  %51 = call i32 @test_true(ptr noundef @.str.14, i32 noundef 2681, ptr noundef @.str.26, i32 noundef %50)
  %52 = icmp ne i32 %51, 0
  br i1 %52, label %54, label %53

53:                                               ; preds = %45
  br label %111

54:                                               ; preds = %45
  %55 = load ptr, ptr @libctx, align 8, !tbaa !4
  %56 = load ptr, ptr %2, align 8, !tbaa !11
  %57 = call i32 @OSSL_PROVIDER_available(ptr noundef %55, ptr noundef %56)
  %58 = icmp ne i32 %57, 0
  %59 = zext i1 %58 to i32
  %60 = call i32 @test_true(ptr noundef @.str.14, i32 noundef 2685, ptr noundef @.str.27, i32 noundef %59)
  %61 = icmp ne i32 %60, 0
  br i1 %61, label %63, label %62

62:                                               ; preds = %54
  br label %111

63:                                               ; preds = %54
  %64 = load ptr, ptr %2, align 8, !tbaa !11
  %65 = call i32 @strcmp(ptr noundef %64, ptr noundef @.str.18) #9
  %66 = icmp ne i32 %65, 0
  br i1 %66, label %67, label %75

67:                                               ; preds = %63
  %68 = load ptr, ptr @libctx, align 8, !tbaa !4
  %69 = call i32 @OSSL_PROVIDER_available(ptr noundef %68, ptr noundef @.str.18)
  %70 = icmp ne i32 %69, 0
  %71 = zext i1 %70 to i32
  %72 = call i32 @test_false(ptr noundef @.str.14, i32 noundef 2690, ptr noundef @.str.28, i32 noundef %71)
  %73 = icmp ne i32 %72, 0
  br i1 %73, label %75, label %74

74:                                               ; preds = %67
  br label %111

75:                                               ; preds = %67, %63
  %76 = load ptr, ptr %2, align 8, !tbaa !11
  %77 = call i32 @strcmp(ptr noundef %76, ptr noundef @.str.20) #9
  %78 = icmp eq i32 %77, 0
  br i1 %78, label %79, label %80

79:                                               ; preds = %75
  store i32 1, ptr @is_fips, align 4, !tbaa !13
  br label %80

80:                                               ; preds = %79, %75
  %81 = load ptr, ptr @certsdir, align 8, !tbaa !11
  %82 = call ptr @test_mk_file_path(ptr noundef %81, ptr noundef @.str.29)
  store ptr %82, ptr @cert, align 8, !tbaa !11
  %83 = load ptr, ptr @cert, align 8, !tbaa !11
  %84 = icmp eq ptr %83, null
  br i1 %84, label %85, label %86

85:                                               ; preds = %80
  br label %111

86:                                               ; preds = %80
  %87 = load ptr, ptr @certsdir, align 8, !tbaa !11
  %88 = call ptr @test_mk_file_path(ptr noundef %87, ptr noundef @.str.30)
  store ptr %88, ptr @ccert, align 8, !tbaa !11
  %89 = load ptr, ptr @ccert, align 8, !tbaa !11
  %90 = icmp eq ptr %89, null
  br i1 %90, label %91, label %92

91:                                               ; preds = %86
  br label %111

92:                                               ; preds = %86
  %93 = load ptr, ptr @certsdir, align 8, !tbaa !11
  %94 = call ptr @test_mk_file_path(ptr noundef %93, ptr noundef @.str.31)
  store ptr %94, ptr @cauthca, align 8, !tbaa !11
  %95 = load ptr, ptr @cauthca, align 8, !tbaa !11
  %96 = icmp eq ptr %95, null
  br i1 %96, label %97, label %98

97:                                               ; preds = %92
  br label %111

98:                                               ; preds = %92
  %99 = load ptr, ptr @certsdir, align 8, !tbaa !11
  %100 = call ptr @test_mk_file_path(ptr noundef %99, ptr noundef @.str.32)
  store ptr %100, ptr @privkey, align 8, !tbaa !11
  %101 = load ptr, ptr @privkey, align 8, !tbaa !11
  %102 = icmp eq ptr %101, null
  br i1 %102, label %103, label %104

103:                                              ; preds = %98
  br label %111

104:                                              ; preds = %98
  %105 = load ptr, ptr @certsdir, align 8, !tbaa !11
  %106 = call ptr @test_mk_file_path(ptr noundef %105, ptr noundef @.str.33)
  store ptr %106, ptr @cprivkey, align 8, !tbaa !11
  %107 = load ptr, ptr @privkey, align 8, !tbaa !11
  %108 = icmp eq ptr %107, null
  br i1 %108, label %109, label %110

109:                                              ; preds = %104
  br label %111

110:                                              ; preds = %104
  call void @add_all_tests(ptr noundef @.str.34, ptr noundef @test_quic_write_read, i32 noundef 3, i32 noundef 1)
  call void @add_test(ptr noundef @.str.35, ptr noundef @test_fin_only_blocking)
  call void @add_test(ptr noundef @.str.36, ptr noundef @test_ciphersuites)
  call void @add_test(ptr noundef @.str.37, ptr noundef @test_cipher_find)
  call void @add_test(ptr noundef @.str.38, ptr noundef @test_version)
  call void @add_test(ptr noundef @.str.39, ptr noundef @test_ssl_trace)
  call void @add_test(ptr noundef @.str.40, ptr noundef @test_quic_forbidden_apis_ctx)
  call void @add_test(ptr noundef @.str.41, ptr noundef @test_quic_forbidden_apis)
  call void @add_test(ptr noundef @.str.42, ptr noundef @test_quic_forbidden_options)
  call void @add_all_tests(ptr noundef @.str.43, ptr noundef @test_quic_set_fd, i32 noundef 3, i32 noundef 1)
  call void @add_test(ptr noundef @.str.44, ptr noundef @test_bio_ssl)
  call void @add_test(ptr noundef @.str.45, ptr noundef @test_back_pressure)
  call void @add_test(ptr noundef @.str.46, ptr noundef @test_multiple_dgrams)
  call void @add_all_tests(ptr noundef @.str.47, ptr noundef @test_non_io_retry, i32 noundef 2, i32 noundef 1)
  call void @add_test(ptr noundef @.str.48, ptr noundef @test_quic_psk)
  call void @add_all_tests(ptr noundef @.str.49, ptr noundef @test_client_auth, i32 noundef 3, i32 noundef 1)
  call void @add_all_tests(ptr noundef @.str.50, ptr noundef @test_alpn, i32 noundef 2, i32 noundef 1)
  call void @add_all_tests(ptr noundef @.str.51, ptr noundef @test_noisy_dgram, i32 noundef 2, i32 noundef 1)
  call void @add_test(ptr noundef @.str.52, ptr noundef @test_bw_limit)
  call void @add_test(ptr noundef @.str.53, ptr noundef @test_get_shutdown)
  call void @add_all_tests(ptr noundef @.str.54, ptr noundef @test_tparam, i32 noundef 75, i32 noundef 1)
  call void @add_test(ptr noundef @.str.55, ptr noundef @test_session_cb)
  call void @add_test(ptr noundef @.str.56, ptr noundef @test_domain_flags)
  call void @add_test(ptr noundef @.str.57, ptr noundef @test_early_ticks)
  call void @add_test(ptr noundef @.str.58, ptr noundef @test_ssl_new_from_listener)
  call void @add_test(ptr noundef @.str.59, ptr noundef @test_new_token)
  store i32 1, ptr %1, align 4
  store i32 1, ptr %4, align 4
  br label %112

111:                                              ; preds = %109, %103, %97, %91, %85, %74, %62, %53, %44, %27, %23
  call void @cleanup_tests()
  store i32 0, ptr %1, align 4
  store i32 1, ptr %4, align 4
  br label %112

112:                                              ; preds = %111, %110, %9
  call void @llvm.lifetime.end.p0(i64 8, ptr %3) #8
  call void @llvm.lifetime.end.p0(i64 8, ptr %2) #8
  %113 = load i32, ptr %1, align 4
  ret i32 %113
}