; Function Attrs: nounwind uwtable
define dso_local range(i32 0, 2) i32 @setup_tests() local_unnamed_addr #1 {
  %1 = tail call ptr @OSSL_LIB_CTX_new() #10
  store ptr %1, ptr @libctx, align 8, !tbaa !4
  %2 = tail call i32 @test_ptr(ptr noundef nonnull @.str.14, i32 noundef 2657, ptr noundef nonnull @.str.15, ptr noundef %1) #10
  %.not = icmp eq i32 %2, 0
  br i1 %.not, label %84, label %3

3:                                                ; preds = %0
  %4 = tail call ptr @OSSL_PROVIDER_load(ptr noundef null, ptr noundef nonnull @.str.16) #10
  store ptr %4, ptr @defctxnull, align 8, !tbaa !9
  %5 = tail call i32 @OSSL_PROVIDER_available(ptr noundef null, ptr noundef nonnull @.str.18) #10
  %6 = icmp ne i32 %5, 0
  %7 = zext i1 %6 to i32
  %8 = tail call i32 @test_false(ptr noundef nonnull @.str.14, i32 noundef 2666, ptr noundef nonnull @.str.17, i32 noundef %7) #10
  %.not4 = icmp eq i32 %8, 0
  br i1 %.not4, label %75, label %9

9:                                                ; preds = %3
  %10 = tail call i32 @OSSL_PROVIDER_available(ptr noundef null, ptr noundef nonnull @.str.20) #10
  %11 = icmp ne i32 %10, 0
  %12 = zext i1 %11 to i32
  %13 = tail call i32 @test_false(ptr noundef nonnull @.str.14, i32 noundef 2667, ptr noundef nonnull @.str.19, i32 noundef %12) #10
  %.not5 = icmp eq i32 %13, 0
  br i1 %.not5, label %75, label %14

14:                                               ; preds = %9
  %15 = tail call i32 @test_skip_common_options() #10
  %.not6 = icmp eq i32 %15, 0
  br i1 %.not6, label %16, label %17

16:                                               ; preds = %14
  tail call void (ptr, i32, ptr, ...) @test_error(ptr noundef nonnull @.str.14, i32 noundef 2671, ptr noundef nonnull @.str.21) #10
  br label %75

17:                                               ; preds = %14
  %18 = tail call ptr @test_get_argument(i64 noundef 0) #10
  %19 = tail call i32 @test_ptr(ptr noundef nonnull @.str.14, i32 noundef 2675, ptr noundef nonnull @.str.22, ptr noundef %18) #10
  %.not7 = icmp eq i32 %19, 0
  br i1 %.not7, label %75, label %20

20:                                               ; preds = %17
  %21 = tail call ptr @test_get_argument(i64 noundef 1) #10
  %22 = tail call i32 @test_ptr(ptr noundef nonnull @.str.14, i32 noundef 2676, ptr noundef nonnull @.str.23, ptr noundef %21) #10
  %.not8 = icmp eq i32 %22, 0
  br i1 %.not8, label %75, label %23

23:                                               ; preds = %20
  %24 = tail call ptr @test_get_argument(i64 noundef 2) #10
  store ptr %24, ptr @certsdir, align 8, !tbaa !11
  %25 = tail call i32 @test_ptr(ptr noundef nonnull @.str.14, i32 noundef 2677, ptr noundef nonnull @.str.24, ptr noundef %24) #10
  %.not9 = icmp eq i32 %25, 0
  br i1 %.not9, label %75, label %26

26:                                               ; preds = %23
  %27 = tail call ptr @test_get_argument(i64 noundef 3) #10
  store ptr %27, ptr @datadir, align 8, !tbaa !11
  %28 = tail call i32 @test_ptr(ptr noundef nonnull @.str.14, i32 noundef 2678, ptr noundef nonnull @.str.25, ptr noundef %27) #10
  %.not10 = icmp eq i32 %28, 0
  br i1 %.not10, label %75, label %29

29:                                               ; preds = %26
  %30 = load ptr, ptr @libctx, align 8, !tbaa !4
  %31 = tail call i32 @OSSL_LIB_CTX_load_config(ptr noundef %30, ptr noundef %21) #10
  %32 = icmp ne i32 %31, 0
  %33 = zext i1 %32 to i32
  %34 = tail call i32 @test_true(ptr noundef nonnull @.str.14, i32 noundef 2681, ptr noundef nonnull @.str.26, i32 noundef %33) #10
  %.not11 = icmp eq i32 %34, 0
  br i1 %.not11, label %75, label %35

35:                                               ; preds = %29
  %36 = load ptr, ptr @libctx, align 8, !tbaa !4
  %37 = tail call i32 @OSSL_PROVIDER_available(ptr noundef %36, ptr noundef %18) #10
  %38 = icmp ne i32 %37, 0
  %39 = zext i1 %38 to i32
  %40 = tail call i32 @test_true(ptr noundef nonnull @.str.14, i32 noundef 2685, ptr noundef nonnull @.str.27, i32 noundef %39) #10
  %.not12 = icmp eq i32 %40, 0
  br i1 %.not12, label %75, label %41

41:                                               ; preds = %35
  %42 = tail call i32 @strcmp(ptr noundef nonnull dereferenceable(1) %18, ptr noundef nonnull dereferenceable(8) @.str.18) #11
  %.not13 = icmp eq i32 %42, 0
  br i1 %.not13, label %49, label %43

43:                                               ; preds = %41
  %44 = load ptr, ptr @libctx, align 8, !tbaa !4
  %45 = tail call i32 @OSSL_PROVIDER_available(ptr noundef %44, ptr noundef nonnull @.str.18) #10
  %46 = icmp ne i32 %45, 0
  %47 = zext i1 %46 to i32
  %48 = tail call i32 @test_false(ptr noundef nonnull @.str.14, i32 noundef 2690, ptr noundef nonnull @.str.28, i32 noundef %47) #10
  %.not14 = icmp eq i32 %48, 0
  br i1 %.not14, label %75, label %49

49:                                               ; preds = %43, %41
  %50 = tail call i32 @strcmp(ptr noundef nonnull dereferenceable(1) %18, ptr noundef nonnull dereferenceable(5) @.str.20) #11
  %51 = icmp eq i32 %50, 0
  br i1 %51, label %52, label %53

52:                                               ; preds = %49
  store i1 true, ptr @is_fips, align 4
  br label %53

53:                                               ; preds = %52, %49
  %54 = load ptr, ptr @certsdir, align 8, !tbaa !11
  %55 = tail call ptr @test_mk_file_path(ptr noundef %54, ptr noundef nonnull @.str.29) #10
  store ptr %55, ptr @cert, align 8, !tbaa !11
  %56 = icmp eq ptr %55, null
  br i1 %56, label %75, label %57

57:                                               ; preds = %53
  %58 = load ptr, ptr @certsdir, align 8, !tbaa !11
  %59 = tail call ptr @test_mk_file_path(ptr noundef %58, ptr noundef nonnull @.str.30) #10
  store ptr %59, ptr @ccert, align 8, !tbaa !11
  %60 = icmp eq ptr %59, null
  br i1 %60, label %75, label %61

61:                                               ; preds = %57
  %62 = load ptr, ptr @certsdir, align 8, !tbaa !11
  %63 = tail call ptr @test_mk_file_path(ptr noundef %62, ptr noundef nonnull @.str.31) #10
  store ptr %63, ptr @cauthca, align 8, !tbaa !11
  %64 = icmp eq ptr %63, null
  br i1 %64, label %75, label %65

65:                                               ; preds = %61
  %66 = load ptr, ptr @certsdir, align 8, !tbaa !11
  %67 = tail call ptr @test_mk_file_path(ptr noundef %66, ptr noundef nonnull @.str.32) #10
  store ptr %67, ptr @privkey, align 8, !tbaa !11
  %68 = icmp eq ptr %67, null
  br i1 %68, label %75, label %69

69:                                               ; preds = %65
  %70 = load ptr, ptr @certsdir, align 8, !tbaa !11
  %71 = tail call ptr @test_mk_file_path(ptr noundef %70, ptr noundef nonnull @.str.33) #10
  store ptr %71, ptr @cprivkey, align 8, !tbaa !11
  %72 = load ptr, ptr @privkey, align 8, !tbaa !11
  %73 = icmp eq ptr %72, null
  br i1 %73, label %75, label %74

74:                                               ; preds = %69
  tail call void @add_all_tests(ptr noundef nonnull @.str.34, ptr noundef nonnull @test_quic_write_read, i32 noundef 3, i32 noundef 1) #10
  tail call void @add_test(ptr noundef nonnull @.str.35, ptr noundef nonnull @test_fin_only_blocking) #10
  tail call void @add_test(ptr noundef nonnull @.str.36, ptr noundef nonnull @test_ciphersuites) #10
  tail call void @add_test(ptr noundef nonnull @.str.37, ptr noundef nonnull @test_cipher_find) #10
  tail call void @add_test(ptr noundef nonnull @.str.38, ptr noundef nonnull @test_version) #10
  tail call void @add_test(ptr noundef nonnull @.str.39, ptr noundef nonnull @test_ssl_trace) #10
  tail call void @add_test(ptr noundef nonnull @.str.40, ptr noundef nonnull @test_quic_forbidden_apis_ctx) #10
  tail call void @add_test(ptr noundef nonnull @.str.41, ptr noundef nonnull @test_quic_forbidden_apis) #10
  tail call void @add_test(ptr noundef nonnull @.str.42, ptr noundef nonnull @test_quic_forbidden_options) #10
  tail call void @add_all_tests(ptr noundef nonnull @.str.43, ptr noundef nonnull @test_quic_set_fd, i32 noundef 3, i32 noundef 1) #10
  tail call void @add_test(ptr noundef nonnull @.str.44, ptr noundef nonnull @test_bio_ssl) #10
  tail call void @add_test(ptr noundef nonnull @.str.45, ptr noundef nonnull @test_back_pressure) #10
  tail call void @add_test(ptr noundef nonnull @.str.46, ptr noundef nonnull @test_multiple_dgrams) #10
  tail call void @add_all_tests(ptr noundef nonnull @.str.47, ptr noundef nonnull @test_non_io_retry, i32 noundef 2, i32 noundef 1) #10
  tail call void @add_test(ptr noundef nonnull @.str.48, ptr noundef nonnull @test_quic_psk) #10
  tail call void @add_all_tests(ptr noundef nonnull @.str.49, ptr noundef nonnull @test_client_auth, i32 noundef 3, i32 noundef 1) #10
  tail call void @add_all_tests(ptr noundef nonnull @.str.50, ptr noundef nonnull @test_alpn, i32 noundef 2, i32 noundef 1) #10
  tail call void @add_all_tests(ptr noundef nonnull @.str.51, ptr noundef nonnull @test_noisy_dgram, i32 noundef 2, i32 noundef 1) #10
  tail call void @add_test(ptr noundef nonnull @.str.52, ptr noundef nonnull @test_bw_limit) #10
  tail call void @add_test(ptr noundef nonnull @.str.53, ptr noundef nonnull @test_get_shutdown) #10
  tail call void @add_all_tests(ptr noundef nonnull @.str.54, ptr noundef nonnull @test_tparam, i32 noundef 75, i32 noundef 1) #10
  tail call void @add_test(ptr noundef nonnull @.str.55, ptr noundef nonnull @test_session_cb) #10
  tail call void @add_test(ptr noundef nonnull @.str.56, ptr noundef nonnull @test_domain_flags) #10
  tail call void @add_test(ptr noundef nonnull @.str.57, ptr noundef nonnull @test_early_ticks) #10
  tail call void @add_test(ptr noundef nonnull @.str.58, ptr noundef nonnull @test_ssl_new_from_listener) #10
  tail call void @add_test(ptr noundef nonnull @.str.59, ptr noundef nonnull @test_new_token) #10
  br label %84

75:                                               ; preds = %69, %65, %61, %57, %53, %43, %35, %29, %17, %20, %23, %26, %3, %9, %16
  tail call void @bio_f_noisy_dgram_filter_free() #10
  tail call void @bio_f_pkt_split_dgram_filter_free() #10
  %76 = load ptr, ptr @cert, align 8, !tbaa !11
  tail call void @CRYPTO_free(ptr noundef %76, ptr noundef nonnull @.str.14, i32 noundef 2754) #10
  %77 = load ptr, ptr @privkey, align 8, !tbaa !11
  tail call void @CRYPTO_free(ptr noundef %77, ptr noundef nonnull @.str.14, i32 noundef 2755) #10
  %78 = load ptr, ptr @ccert, align 8, !tbaa !11
  tail call void @CRYPTO_free(ptr noundef %78, ptr noundef nonnull @.str.14, i32 noundef 2756) #10
  %79 = load ptr, ptr @cauthca, align 8, !tbaa !11
  tail call void @CRYPTO_free(ptr noundef %79, ptr noundef nonnull @.str.14, i32 noundef 2757) #10
  %80 = load ptr, ptr @cprivkey, align 8, !tbaa !11
  tail call void @CRYPTO_free(ptr noundef %80, ptr noundef nonnull @.str.14, i32 noundef 2758) #10
  %81 = load ptr, ptr @defctxnull, align 8, !tbaa !9
  %82 = tail call i32 @OSSL_PROVIDER_unload(ptr noundef %81) #10
  %83 = load ptr, ptr @libctx, align 8, !tbaa !4
  tail call void @OSSL_LIB_CTX_free(ptr noundef %83) #10
  br label %84

84:                                               ; preds = %0, %75, %74
  %.0 = phi i32 [ 0, %75 ], [ 1, %74 ], [ 0, %0 ]
  ret i32 %.0
}